; Function Attrs: nounwind sspstrong uwtable
define internal i64 @ossl_ssl_session_to_der(i64 noundef %0) #0 {
  %2 = alloca ptr, align 8
  call void @llvm.lifetime.start.p0(i64 8, ptr nonnull %2) #4
  %3 = tail call ptr @rb_check_typeddata(i64 noundef %0, ptr noundef nonnull @ossl_ssl_session_type) #4
  %.not = icmp eq ptr %3, null
  br i1 %.not, label %4, label %6

4:                                                ; preds = %1
  %5 = load i64, ptr @rb_eRuntimeError, align 8, !tbaa !6
  tail call void (i64, ptr, ...) @ossl_raise(i64 noundef %5, ptr noundef nonnull @.str.18) #5
  unreachable

6:                                                ; preds = %1
  %7 = tail call i32 @i2d_SSL_SESSION(ptr noundef nonnull %3, ptr noundef null) #4
  %8 = icmp slt i32 %7, 1
  br i1 %8, label %9, label %11

9:                                                ; preds = %6
  %10 = load i64, ptr @eSSLSession, align 8, !tbaa !6
  tail call void (i64, ptr, ...) @ossl_raise(i64 noundef %10, ptr noundef nonnull @.str.22) #5
  unreachable

11:                                               ; preds = %6
  %12 = zext nneg i32 %7 to i64
  %13 = tail call i64 @rb_str_new(ptr noundef null, i64 noundef %12) #4, !callees !23
  %14 = inttoptr i64 %13 to ptr
  %15 = load i64, ptr %14, align 8, !tbaa !16, !noalias !24
  %16 = and i64 %15, 8192
  %.not.i.i = icmp eq i64 %16, 0
  %17 = getelementptr inbounds nuw i8, ptr %14, i64 24
  br i1 %.not.i.i, label %RSTRING_PTR.exit, label %18

18:                                               ; preds = %11
  %.sroa.2.0.copyload.i = load ptr, ptr %17, align 8
  br label %RSTRING_PTR.exit

RSTRING_PTR.exit:                                 ; preds = %11, %18
  %.sroa.2.0.i = phi ptr [ %.sroa.2.0.copyload.i, %18 ], [ %17, %11 ]
  store ptr %.sroa.2.0.i, ptr %2, align 8, !tbaa !27
  %19 = call i32 @i2d_SSL_SESSION(ptr noundef nonnull %3, ptr noundef nonnull %2) #4
  %20 = load ptr, ptr %2, align 8, !tbaa !27
  %21 = load i64, ptr %14, align 8, !tbaa !16, !noalias !29
  %22 = and i64 %21, 8192
  %.not.i.i12 = icmp eq i64 %22, 0
  br i1 %.not.i.i12, label %RSTRING_PTR.exit15, label %23

23:                                               ; preds = %RSTRING_PTR.exit
  %.sroa.2.0.copyload.i13 = load ptr, ptr %17, align 8
  br label %RSTRING_PTR.exit15

RSTRING_PTR.exit15:                               ; preds = %RSTRING_PTR.exit, %23
  %.sroa.2.0.i14 = phi ptr [ %.sroa.2.0.copyload.i13, %23 ], [ %17, %RSTRING_PTR.exit ]
  %24 = ptrtoint ptr %20 to i64
  %25 = ptrtoint ptr %.sroa.2.0.i14 to i64
  %26 = sub i64 %24, %25
  call void @rb_str_set_len(i64 noundef %13, i64 noundef %26) #4
  call void @llvm.lifetime.end.p0(i64 8, ptr nonnull %2) #4
  ret i64 %13
}